; Function Attrs: null_pointer_is_valid sspstrong uwtable
define internal i32 @IWbemServices_dissect_element_ExecMethod_orpcthat_(ptr noundef %0, i32 noundef %1, ptr noundef %2, ptr noundef %3, ptr noundef %4, ptr noundef %5) #0 {
  tail call void @register_dcom_wmio()
  %7 = load i32, ptr @hf_IWbemServices_ExecMethod_orpcthat, align 4
  %8 = tail call ptr @proto_tree_add_item(ptr noundef %3, i32 noundef %7, ptr noundef %0, i32 noundef %1, i32 noundef 0, i32 noundef 0)
  %9 = load i32, ptr @ett_IWbemServices_ExecMethod_orpcthat, align 4
  %10 = tail call ptr @proto_item_add_subtree(ptr noundef %8, i32 noundef %9)
  %11 = tail call i32 @dissect_dcom_that(ptr noundef %0, i32 noundef %1, ptr noundef %2, ptr noundef %10, ptr noundef %4, ptr noundef %5)
  ret i32 %11
}